target datalayout = "e-m:e-p270:32:32-p271:32:32-p272:64:64-i64:64-i128:128-f80:128-n8:16:32:64-S128"
target triple = "x86_64-unknown-linux-gnu"

%"struct.node::crypto::AsymmetricKeyEncodingConfig" = type { i8, i32, %"class.v8::Maybe.12" }
%"class.v8::Maybe.12" = type { i8, i32 }

; Function Attrs: mustprogress nounwind uwtable
define linkonce_odr dso_local void @_ZN2v85MaybeIN4node6crypto14PKEncodingTypeEEC2Ev(ptr noundef nonnull align 4 dereferenceable(8) %this) unnamed_addr #4 comdat align 2 {
entry:
  %this.addr = alloca ptr, align 8
  store ptr %this, ptr %this.addr, align 8
  %this1 = load ptr, ptr %this.addr, align 8
  %has_value_ = getelementptr inbounds %"class.v8::Maybe.12", ptr %this1, i32 0, i32 0
  store i8 0, ptr %has_value_, align 4
  ret void
}

; Function Attrs: mustprogress nounwind uwtable
define linkonce_odr dso_local i64 @_ZN2v87NothingIN4node6crypto14PKEncodingTypeEEENS_5MaybeIT_EEv() #4 comdat {
entry:
  %retval = alloca %"class.v8::Maybe.12", align 4
  call void @_ZN2v85MaybeIN4node6crypto14PKEncodingTypeEEC2Ev(ptr noundef nonnull align 4 dereferenceable(8) %retval)
  %0 = load i64, ptr %retval, align 4
  ret i64 %0
}

; Function Attrs: mustprogress nounwind uwtable
define linkonce_odr dso_local void @_ZN4node6crypto27AsymmetricKeyEncodingConfigC2Ev(ptr noundef nonnull align 4 dereferenceable(16) %this) unnamed_addr #4 comdat align 2 {
entry:
  %this.addr = alloca ptr, align 8
  store ptr %this, ptr %this.addr, align 8
  %this1 = load ptr, ptr %this.addr, align 8
  %output_key_object_ = getelementptr inbounds %"struct.node::crypto::AsymmetricKeyEncodingConfig", ptr %this1, i32 0, i32 0
  store i8 0, ptr %output_key_object_, align 4
  %format_ = getelementptr inbounds %"struct.node::crypto::AsymmetricKeyEncodingConfig", ptr %this1, i32 0, i32 1
  store i32 0, ptr %format_, align 4
  %type_ = getelementptr inbounds %"struct.node::crypto::AsymmetricKeyEncodingConfig", ptr %this1, i32 0, i32 2
  %call = call i64 @_ZN2v87NothingIN4node6crypto14PKEncodingTypeEEENS_5MaybeIT_EEv()
  store i64 %call, ptr %type_, align 4
  ret void
}

; Function Attrs: mustprogress nounwind uwtable
define dso_local { i64, i64 } @_ZN4node6crypto14ManagedEVPPKey26GetPublicKeyEncodingFromJsERKN2v820FunctionCallbackInfoINS2_5ValueEEEPjNS0_18KeyEncodingContextE(ptr noundef nonnull align 8 dereferenceable(20) %args, ptr noundef %offset, i32 noundef %context) #4 align 2 {
entry:
  %retval = alloca %"struct.node::crypto::AsymmetricKeyEncodingConfig", align 4
  %args.addr = alloca ptr, align 8
  %offset.addr = alloca ptr, align 8
  %context.addr = alloca i32, align 4
  store ptr %args, ptr %args.addr, align 8
  store ptr %offset, ptr %offset.addr, align 8
  store i32 %context, ptr %context.addr, align 4
  call void @_ZN4node6crypto27AsymmetricKeyEncodingConfigC2Ev(ptr noundef nonnull align 4 dereferenceable(16) %retval)
  %0 = load ptr, ptr %args.addr, align 8
  %1 = load ptr, ptr %offset.addr, align 8
  %2 = load i32, ptr %context.addr, align 4
  call void @_ZN4node6crypto12_GLOBAL__N_125GetKeyFormatAndTypeFromJsEPNS0_27AsymmetricKeyEncodingConfigERKN2v820FunctionCallbackInfoINS4_5ValueEEEPjNS0_18KeyEncodingContextE(ptr noundef %retval, ptr noundef nonnull align 8 dereferenceable(20) %0, ptr noundef %1, i32 noundef %2)
  %3 = load { i64, i64 }, ptr %retval, align 4
  ret { i64, i64 } %3
}