; Function Attrs: mustprogress nounwind uwtable
define dso_local { i64, i64 } @_ZN4node6crypto14ManagedEVPPKey26GetPublicKeyEncodingFromJsERKN2v820FunctionCallbackInfoINS2_5ValueEEEPjNS0_18KeyEncodingContextE(ptr nocapture noundef nonnull readonly align 8 dereferenceable(20) %args, ptr nocapture noundef %offset, i32 noundef %context) local_unnamed_addr #3 align 2 {
entry:
  %retval = alloca %"struct.node::crypto::AsymmetricKeyEncodingConfig", align 8
  store i8 0, ptr %retval, align 8
  %format_.i = getelementptr inbounds i8, ptr %retval, i64 4
  store i32 0, ptr %format_.i, align 4
  %type_.i = getelementptr inbounds i8, ptr %retval, i64 8
  store i64 0, ptr %type_.i, align 8
  call fastcc void @_ZN4node6crypto12_GLOBAL__N_125GetKeyFormatAndTypeFromJsEPNS0_27AsymmetricKeyEncodingConfigERKN2v820FunctionCallbackInfoINS4_5ValueEEEPjNS0_18KeyEncodingContextE(ptr noundef nonnull %retval, ptr noundef nonnull align 8 dereferenceable(20) %args, ptr noundef %offset, i32 noundef %context)
  %.fca.0.load = load i64, ptr %retval, align 8
  %.fca.0.insert = insertvalue { i64, i64 } poison, i64 %.fca.0.load, 0
  %.fca.1.load = load i64, ptr %type_.i, align 8
  %.fca.1.insert = insertvalue { i64, i64 } %.fca.0.insert, i64 %.fca.1.load, 1
  ret { i64, i64 } %.fca.1.insert
}